Certificate:
    Data:
        Version: 3 (0x2)
        Serial Number: 1 (0x1)
    Signature Algorithm: sha256WithRSAEncryption
        Issuer: CN=Easy-RSA CA
        Validity
            Not Before: Nov 18 21:44:17 2013 GMT
            Not After : Nov 18 21:44:17 2014 GMT
        Subject: CN=server
        Subject Public Key Info:
            Public Key Algorithm: rsaEncryption
                Public-Key: (2048 bit)
                Modulus:
                    00:b1:38:f0:a4:86:90:bb:94:08:57:4e:d8:b7:cc:
                    1a:d4:61:71:1e:0a:c4:94:a6:fe:45:c2:48:57:03:
                    38:a7:d9:5e:ee:50:fd:94:83:a7:f0:48:d3:7d:c1:
                    6e:59:29:5a:46:8a:05:77:a0:ee:06:a2:46:b0:51:
                    d5:df:1e:3c:14:b8:85:12:3a:28:96:40:cc:9d:80:
                    05:29:11:15:f1:7c:f1:9b:3d:0c:51:90:ba:c7:91:
                    73:d0:dd:97:e9:16:47:08:5e:39:62:d7:9e:28:f2:
                    37:3a:30:9e:ac:85:f2:9a:75:fa:a0:83:53:4e:12:
                    a2:7b:3a:68:d0:5d:4d:a4:19:cf:c0:65:18:9c:81:
                    86:a4:b9:db:d3:0a:b5:6a:12:24:5f:4f:82:59:01:
                    e6:24:c1:dc:9c:25:30:d6:3d:b6:16:4d:df:16:40:
                    7c:f9:1e:1f:84:43:dc:d8:d5:af:66:6c:cc:29:30:
                    df:72:e7:62:11:db:40:4c:bf:65:65:51:f7:64:37:
                    a7:66:be:8e:fb:59:34:0e:77:95:cd:7a:fa:73:52:
                    ac:c3:55:d3:2e:d0:b6:a8:31:57:2e:0f:0f:76:c3:
                    c3:1d:a1:4c:f1:eb:ea:16:ed:30:7c:c4:3e:ba:5e:
                    99:38:43:f3:76:f9:ed:16:08:b9:2f:96:6e:26:b2:
                    35:ed
                Exponent: 65537 (0x10001)
        X509v3 extensions:
            X509v3 Basic Constraints: 
                CA:FALSE
            X509v3 Subject Key Identifier: 
                2E:9A:E8:CC:45:E9:24:11:30:0A:E1:D9:02:F3:E1:B4:D9:5A:04:C6
            X509v3 Authority Key Identifier: 
                keyid:F2:1D:81:49:02:E4:AE:8A:A5:63:42:AA:A5:6B:0A:59:87:A4:2F:16
                DirName:/CN=Easy-RSA CA
                serial:E7:35:D8:CB:06:E7:C9:E0

            X509v3 Extended Key Usage: 
                TLS Web Server Authentication
            X509v3 Key Usage: 
                Digital Signature, Key Encipherment
    Signature Algorithm: sha256WithRSAEncryption
         7e:b6:62:72:1a:a0:68:a9:91:33:12:62:cb:5c:7d:7d:5a:1b:
         54:6e:b5:fe:c1:44:fd:56:34:4c:32:ea:40:d0:ed:40:b2:32:
         0f:20:a7:8a:1f:d3:1c:11:2a:b4:a6:b3:b8:79:69:87:70:85:
         8a:cb:1d:8c:4c:44:8e:e8:a1:9c:00:47:55:fd:61:01:4f:61:
         08:f5:2e:7a:da:0d:cb:a9:20:ce:8a:f7:38:87:98:64:0f:05:
         92:7a:dd:ed:d7:19:44:b1:ad:8f:11:ce:d3:0e:f6:3c:06:59:
         c1:b0:92:af:86:89:67:2c:26:6b:37:74:4f:14:81:33:69:27:
         ab:4c:4c:34:b3:95:ad:90:51:cb:9c:49:09:de:ab:89:df:d0:
         3b:66:98:df:05:ba:26:83:f5:df:bd:9f:1f:52:f0:bc:9b:f7:
         cc:3f:ce:d7:0e:7e:ec:60:4e:1e:d8:be:bc:0a:c1:5a:4e:b4:
         76:63:f3:f2:2e:d1:9d:60:00:de:50:c5:55:2a:3a:51:dc:6d:
         ce:ff:4a:a6:37:d5:4f:65:d0:c0:69:1c:41:7c:84:91:af:91:
         d2:cb:c6:3e:42:48:aa:03:a5:2e:9e:d9:92:59:5c:08:e7:df:
         aa:46:0e:8d:3a:a4:61:1e:39:74:7f:eb:18:30:1f:3a:12:9e:
         4c:6b:58:90
-----BEGIN CERTIFICATE-----
MIIDOjCCAiKgAwIBAgIBATANBgkqhkiG9w0BAQsFADAWMRQwEgYDVQQDEwtFYXN5
LVJTQSBDQTAeFw0xMzExMTgyMTQ0MTdaFw0xNDExMTgyMTQ0MTdaMBExDzANBgNV
BAMTBnNlcnZlcjCCASIwDQYJKoZIhvcNAQEBBQADggEPADCCAQoCggEBALE48KSG
kLuUCFdO2LfMGtRhcR4KxJSm/kXCSFcDOKfZXu5Q/ZSDp/BI033BblkpWkaKBXeg
7gaiRrBR1d8ePBS4hRI6KJZAzJ2ABSkRFfF88Zs9DFGQuseRc9Ddl+kWRwheOWLX
nijyNzownqyF8pp1+qCDU04Sons6aNBdTaQZz8BlGJyBhqS529MKtWoSJF9PglkB
5iTB3JwlMNY9thZN3xZAfPkeH4RD3NjVr2ZszCkw33LnYhHbQEy/ZWVR92Q3p2a+
jvtZNA53lc16+nNSrMNV0y7QtqgxVy4PD3bDwx2hTPHr6hbtMHzEPrpemThD83b5
7RYIuS+WbiayNe0CAwEAAaOBlzCBlDAJBgNVHRMEAjAAMB0GA1UdDgQWBBQumujM
RekkETAK4dkC8+G02VoExjBGBgNVHSMEPzA9gBTyHYFJAuSuiqVjQqqlawpZh6Qv
FqEapBgwFjEUMBIGA1UEAxMLRWFzeS1SU0EgQ0GCCQDnNdjLBufJ4DATBgNVHSUE
DDAKBggrBgEFBQcDATALBgNVHQ8EBAMCBaAwDQYJKoZIhvcNAQELBQADggEBAH62
YnIaoGipkTMSYstcfX1aG1Rutf7BRP1WNEwy6kDQ7UCyMg8gp4of0xwRKrSms7h5
aYdwhYrLHYxMRI7ooZwAR1X9YQFPYQj1LnraDcupIM6K9ziHmGQPBZJ63e3XGUSx
rY8RztMO9jwGWcGwkq+GiWcsJms3dE8UgTNpJ6tMTDSzla2QUcucSQneq4nf0Dtm
mN8FuiaD9d+9nx9S8Lyb98w/ztcOfuxgTh7YvrwKwVpOtHZj8/Iu0Z1gAN5QxVUq
OlHcbc7/SqY31U9l0MBpHEF8hJGvkdLLxj5CSKoDpS6e2ZJZXAjn36pGDo06pGEe
OXR/6xgwHzoSnkxrWJA=
-----END CERTIFICATE-----
